; Function Attrs: mustprogress nofree norecurse nosync nounwind willreturn memory(read, inaccessiblemem: none) uwtable
define hidden noundef i64 @_ZN6google8protobuf8internal14WireFormatLite9Int64SizeERKNS0_13RepeatedFieldIlEE(ptr noundef nonnull readonly align 8 captures(none) dereferenceable(16) %0) local_unnamed_addr #7 align 2 personality ptr @__gxx_personality_v0 {
  %2 = load i32, ptr %0, align 8, !tbaa !58
  %3 = icmp sgt i32 %2, 0
  br i1 %3, label %.lr.ph, label %._crit_edge

.lr.ph:                                           ; preds = %1
  %4 = getelementptr inbounds nuw i8, ptr %0, i64 8
  %5 = load ptr, ptr %4, align 8, !tbaa !60
  %wide.trip.count = zext nneg i32 %2 to i64
  br label %6

._crit_edge:                                      ; preds = %6, %1
  %.07.lcssa = phi i64 [ 0, %1 ], [ %15, %6 ]
  ret i64 %.07.lcssa

6:                                                ; preds = %.lr.ph, %6
  %indvars.iv = phi i64 [ 0, %.lr.ph ], [ %indvars.iv.next, %6 ]
  %.078 = phi i64 [ 0, %.lr.ph ], [ %15, %6 ]
  %7 = getelementptr inbounds nuw i64, ptr %5, i64 %indvars.iv
  %8 = load i64, ptr %7, align 8, !tbaa !29
  %9 = or i64 %8, 1
  %10 = tail call range(i64 0, 65) i64 @llvm.ctlz.i64(i64 %9, i1 true)
  %11 = xor i64 %10, 63
  %12 = mul nuw nsw i64 %11, 9
  %13 = add nuw nsw i64 %12, 73
  %14 = lshr i64 %13, 6
  %15 = add i64 %14, %.078
  %indvars.iv.next = add nuw nsw i64 %indvars.iv, 1
  %exitcond.not = icmp eq i64 %indvars.iv.next, %wide.trip.count
  br i1 %exitcond.not, label %._crit_edge, label %6, !llvm.loop !61
}